target datalayout = "e-m:e-p270:32:32-p271:32:32-p272:64:64-i64:64-i128:128-f80:128-n8:16:32:64-S128"
target triple = "x86_64-pc-linux-gnu"

%struct.Curl_llist_node = type { ptr, ptr, ptr, ptr }
%struct.easy_pollset = type { [5 x i32], i32, [5 x i8] }
%struct.curltime = type { i64, i32 }
%struct.ssl_primary_config = type { ptr, ptr, ptr, ptr, ptr, ptr, ptr, ptr, ptr, ptr, ptr, ptr, i8, i32, i8, i8 }
%struct.dynbuf = type { ptr, i64, i64, i64 }
%struct.Curl_llist = type { ptr, ptr, ptr, i64 }
%struct.ip_quadruple = type { [46 x i8], [46 x i8], i32, i32 }
%struct.connectdata = type { %struct.Curl_llist_node, ptr, ptr, i64, ptr, i64, ptr, ptr, %struct.hostname, ptr, ptr, %struct.hostname, %struct.proxy_info, %struct.proxy_info, %struct.ip_quadruple, %struct.ip_quadruple, ptr, ptr, ptr, ptr, ptr, %struct.curltime, %struct.curltime, %struct.curltime, [2 x i32], [2 x ptr], [2 x ptr], [2 x ptr], %struct.anon, %struct.easy_pollset, %struct.ssl_primary_config, %struct.ssl_primary_config, %struct.ConnectBits, ptr, ptr, %struct.curltime, i32, i32, %struct.Curl_llist, i32, i32, %struct.ntlmdata, %struct.ntlmdata, %union.anon.1, ptr, i16, i32, i32, i32, i32, i16, i16, i8, i8, i8, i8, i8, i8, i8 }
%struct.hostname = type { ptr, ptr, ptr, ptr }
%struct.proxy_info = type { %struct.hostname, i32, i8, ptr, ptr }
%struct.anon = type { [2 x %struct.curltime], i32 }
%struct.ConnectBits = type { i64 }
%struct.ntlmdata = type { i32, [8 x i8], i32, ptr }
%union.anon.1 = type { %struct.ftp_conn }
%struct.ftp_conn = type { %struct.pingpong, ptr, ptr, ptr, ptr, ptr, ptr, ptr, i8, i64, ptr, i64, i32, i32, i32, i32, i32, i16, i8, i8, i8, i8, i8 }
%struct.pingpong = type { i64, i8, ptr, i64, i64, %struct.curltime, i64, %struct.dynbuf, %struct.dynbuf, i64, i64, ptr, ptr }

@Curl_cfree = external global ptr, align 8

; Function Attrs: nounwind uwtable
define internal void @reuse_conn(ptr noundef %0, ptr noundef %1, ptr noundef %2) #0 {
  %4 = alloca ptr, align 8
  %5 = alloca ptr, align 8
  %6 = alloca ptr, align 8
  store ptr %0, ptr %4, align 8, !tbaa !4
  store ptr %1, ptr %5, align 8, !tbaa !181
  store ptr %2, ptr %6, align 8, !tbaa !181
  %7 = load ptr, ptr %5, align 8, !tbaa !181
  %8 = getelementptr inbounds nuw %struct.connectdata, ptr %7, i32 0, i32 16
  %9 = load ptr, ptr %8, align 8, !tbaa !198
  %10 = icmp ne ptr %9, null
  br i1 %10, label %11, label %42

11:                                               ; preds = %3
  br label %12

12:                                               ; preds = %11
  %13 = load ptr, ptr @Curl_cfree, align 8, !tbaa !11
  %14 = load ptr, ptr %6, align 8, !tbaa !181
  %15 = getelementptr inbounds nuw %struct.connectdata, ptr %14, i32 0, i32 16
  %16 = load ptr, ptr %15, align 8, !tbaa !198
  call void %13(ptr noundef %16)
  %17 = load ptr, ptr %6, align 8, !tbaa !181
  %18 = getelementptr inbounds nuw %struct.connectdata, ptr %17, i32 0, i32 16
  store ptr null, ptr %18, align 8, !tbaa !198
  br label %19

19:                                               ; preds = %12
  br label %20

20:                                               ; preds = %19
  %21 = load ptr, ptr @Curl_cfree, align 8, !tbaa !11
  %22 = load ptr, ptr %6, align 8, !tbaa !181
  %23 = getelementptr inbounds nuw %struct.connectdata, ptr %22, i32 0, i32 17
  %24 = load ptr, ptr %23, align 8, !tbaa !199
  call void %21(ptr noundef %24)
  %25 = load ptr, ptr %6, align 8, !tbaa !181
  %26 = getelementptr inbounds nuw %struct.connectdata, ptr %25, i32 0, i32 17
  store ptr null, ptr %26, align 8, !tbaa !199
  br label %27

27:                                               ; preds = %20
  %28 = load ptr, ptr %5, align 8, !tbaa !181
  %29 = getelementptr inbounds nuw %struct.connectdata, ptr %28, i32 0, i32 16
  %30 = load ptr, ptr %29, align 8, !tbaa !198
  %31 = load ptr, ptr %6, align 8, !tbaa !181
  %32 = getelementptr inbounds nuw %struct.connectdata, ptr %31, i32 0, i32 16
  store ptr %30, ptr %32, align 8, !tbaa !198
  %33 = load ptr, ptr %5, align 8, !tbaa !181
  %34 = getelementptr inbounds nuw %struct.connectdata, ptr %33, i32 0, i32 17
  %35 = load ptr, ptr %34, align 8, !tbaa !199
  %36 = load ptr, ptr %6, align 8, !tbaa !181
  %37 = getelementptr inbounds nuw %struct.connectdata, ptr %36, i32 0, i32 17
  store ptr %35, ptr %37, align 8, !tbaa !199
  %38 = load ptr, ptr %5, align 8, !tbaa !181
  %39 = getelementptr inbounds nuw %struct.connectdata, ptr %38, i32 0, i32 16
  store ptr null, ptr %39, align 8, !tbaa !198
  %40 = load ptr, ptr %5, align 8, !tbaa !181
  %41 = getelementptr inbounds nuw %struct.connectdata, ptr %40, i32 0, i32 17
  store ptr null, ptr %41, align 8, !tbaa !199
  br label %42

42:                                               ; preds = %27, %3
  %43 = load ptr, ptr %5, align 8, !tbaa !181
  %44 = getelementptr inbounds nuw %struct.connectdata, ptr %43, i32 0, i32 32
  %45 = load i64, ptr %44, align 8
  %46 = lshr i64 %45, 2
  %47 = and i64 %46, 1
  %48 = trunc i64 %47 to i32
  %49 = load ptr, ptr %6, align 8, !tbaa !181
  %50 = getelementptr inbounds nuw %struct.connectdata, ptr %49, i32 0, i32 32
  %51 = zext i32 %48 to i64
  %52 = load i64, ptr %50, align 8
  %53 = and i64 %51, 1
  %54 = shl i64 %53, 2
  %55 = and i64 %52, -5
  %56 = or i64 %55, %54
  store i64 %56, ptr %50, align 8
  %57 = load ptr, ptr %6, align 8, !tbaa !181
  %58 = getelementptr inbounds nuw %struct.connectdata, ptr %57, i32 0, i32 32
  %59 = load i64, ptr %58, align 8
  %60 = lshr i64 %59, 2
  %61 = and i64 %60, 1
  %62 = trunc i64 %61 to i32
  %63 = icmp ne i32 %62, 0
  br i1 %63, label %64, label %145

64:                                               ; preds = %42
  br label %65

65:                                               ; preds = %64
  %66 = load ptr, ptr @Curl_cfree, align 8, !tbaa !11
  %67 = load ptr, ptr %6, align 8, !tbaa !181
  %68 = getelementptr inbounds nuw %struct.connectdata, ptr %67, i32 0, i32 13
  %69 = getelementptr inbounds nuw %struct.proxy_info, ptr %68, i32 0, i32 3
  %70 = load ptr, ptr %69, align 8, !tbaa !184
  call void %66(ptr noundef %70)
  %71 = load ptr, ptr %6, align 8, !tbaa !181
  %72 = getelementptr inbounds nuw %struct.connectdata, ptr %71, i32 0, i32 13
  %73 = getelementptr inbounds nuw %struct.proxy_info, ptr %72, i32 0, i32 3
  store ptr null, ptr %73, align 8, !tbaa !184
  br label %74

74:                                               ; preds = %65
  br label %75

75:                                               ; preds = %74
  %76 = load ptr, ptr @Curl_cfree, align 8, !tbaa !11
  %77 = load ptr, ptr %6, align 8, !tbaa !181
  %78 = getelementptr inbounds nuw %struct.connectdata, ptr %77, i32 0, i32 12
  %79 = getelementptr inbounds nuw %struct.proxy_info, ptr %78, i32 0, i32 3
  %80 = load ptr, ptr %79, align 8, !tbaa !193
  call void %76(ptr noundef %80)
  %81 = load ptr, ptr %6, align 8, !tbaa !181
  %82 = getelementptr inbounds nuw %struct.connectdata, ptr %81, i32 0, i32 12
  %83 = getelementptr inbounds nuw %struct.proxy_info, ptr %82, i32 0, i32 3
  store ptr null, ptr %83, align 8, !tbaa !193
  br label %84

84:                                               ; preds = %75
  br label %85

85:                                               ; preds = %84
  %86 = load ptr, ptr @Curl_cfree, align 8, !tbaa !11
  %87 = load ptr, ptr %6, align 8, !tbaa !181
  %88 = getelementptr inbounds nuw %struct.connectdata, ptr %87, i32 0, i32 13
  %89 = getelementptr inbounds nuw %struct.proxy_info, ptr %88, i32 0, i32 4
  %90 = load ptr, ptr %89, align 8, !tbaa !194
  call void %86(ptr noundef %90)
  %91 = load ptr, ptr %6, align 8, !tbaa !181
  %92 = getelementptr inbounds nuw %struct.connectdata, ptr %91, i32 0, i32 13
  %93 = getelementptr inbounds nuw %struct.proxy_info, ptr %92, i32 0, i32 4
  store ptr null, ptr %93, align 8, !tbaa !194
  br label %94

94:                                               ; preds = %85
  br label %95

95:                                               ; preds = %94
  %96 = load ptr, ptr @Curl_cfree, align 8, !tbaa !11
  %97 = load ptr, ptr %6, align 8, !tbaa !181
  %98 = getelementptr inbounds nuw %struct.connectdata, ptr %97, i32 0, i32 12
  %99 = getelementptr inbounds nuw %struct.proxy_info, ptr %98, i32 0, i32 4
  %100 = load ptr, ptr %99, align 8, !tbaa !195
  call void %96(ptr noundef %100)
  %101 = load ptr, ptr %6, align 8, !tbaa !181
  %102 = getelementptr inbounds nuw %struct.connectdata, ptr %101, i32 0, i32 12
  %103 = getelementptr inbounds nuw %struct.proxy_info, ptr %102, i32 0, i32 4
  store ptr null, ptr %103, align 8, !tbaa !195
  br label %104

104:                                              ; preds = %95
  %105 = load ptr, ptr %5, align 8, !tbaa !181
  %106 = getelementptr inbounds nuw %struct.connectdata, ptr %105, i32 0, i32 13
  %107 = getelementptr inbounds nuw %struct.proxy_info, ptr %106, i32 0, i32 3
  %108 = load ptr, ptr %107, align 8, !tbaa !184
  %109 = load ptr, ptr %6, align 8, !tbaa !181
  %110 = getelementptr inbounds nuw %struct.connectdata, ptr %109, i32 0, i32 13
  %111 = getelementptr inbounds nuw %struct.proxy_info, ptr %110, i32 0, i32 3
  store ptr %108, ptr %111, align 8, !tbaa !184
  %112 = load ptr, ptr %5, align 8, !tbaa !181
  %113 = getelementptr inbounds nuw %struct.connectdata, ptr %112, i32 0, i32 12
  %114 = getelementptr inbounds nuw %struct.proxy_info, ptr %113, i32 0, i32 3
  %115 = load ptr, ptr %114, align 8, !tbaa !193
  %116 = load ptr, ptr %6, align 8, !tbaa !181
  %117 = getelementptr inbounds nuw %struct.connectdata, ptr %116, i32 0, i32 12
  %118 = getelementptr inbounds nuw %struct.proxy_info, ptr %117, i32 0, i32 3
  store ptr %115, ptr %118, align 8, !tbaa !193
  %119 = load ptr, ptr %5, align 8, !tbaa !181
  %120 = getelementptr inbounds nuw %struct.connectdata, ptr %119, i32 0, i32 13
  %121 = getelementptr inbounds nuw %struct.proxy_info, ptr %120, i32 0, i32 4
  %122 = load ptr, ptr %121, align 8, !tbaa !194
  %123 = load ptr, ptr %6, align 8, !tbaa !181
  %124 = getelementptr inbounds nuw %struct.connectdata, ptr %123, i32 0, i32 13
  %125 = getelementptr inbounds nuw %struct.proxy_info, ptr %124, i32 0, i32 4
  store ptr %122, ptr %125, align 8, !tbaa !194
  %126 = load ptr, ptr %5, align 8, !tbaa !181
  %127 = getelementptr inbounds nuw %struct.connectdata, ptr %126, i32 0, i32 12
  %128 = getelementptr inbounds nuw %struct.proxy_info, ptr %127, i32 0, i32 4
  %129 = load ptr, ptr %128, align 8, !tbaa !195
  %130 = load ptr, ptr %6, align 8, !tbaa !181
  %131 = getelementptr inbounds nuw %struct.connectdata, ptr %130, i32 0, i32 12
  %132 = getelementptr inbounds nuw %struct.proxy_info, ptr %131, i32 0, i32 4
  store ptr %129, ptr %132, align 8, !tbaa !195
  %133 = load ptr, ptr %5, align 8, !tbaa !181
  %134 = getelementptr inbounds nuw %struct.connectdata, ptr %133, i32 0, i32 13
  %135 = getelementptr inbounds nuw %struct.proxy_info, ptr %134, i32 0, i32 3
  store ptr null, ptr %135, align 8, !tbaa !184
  %136 = load ptr, ptr %5, align 8, !tbaa !181
  %137 = getelementptr inbounds nuw %struct.connectdata, ptr %136, i32 0, i32 12
  %138 = getelementptr inbounds nuw %struct.proxy_info, ptr %137, i32 0, i32 3
  store ptr null, ptr %138, align 8, !tbaa !193
  %139 = load ptr, ptr %5, align 8, !tbaa !181
  %140 = getelementptr inbounds nuw %struct.connectdata, ptr %139, i32 0, i32 13
  %141 = getelementptr inbounds nuw %struct.proxy_info, ptr %140, i32 0, i32 4
  store ptr null, ptr %141, align 8, !tbaa !194
  %142 = load ptr, ptr %5, align 8, !tbaa !181
  %143 = getelementptr inbounds nuw %struct.connectdata, ptr %142, i32 0, i32 12
  %144 = getelementptr inbounds nuw %struct.proxy_info, ptr %143, i32 0, i32 4
  store ptr null, ptr %144, align 8, !tbaa !195
  br label %145

145:                                              ; preds = %104, %42
  %146 = load ptr, ptr %6, align 8, !tbaa !181
  %147 = getelementptr inbounds nuw %struct.connectdata, ptr %146, i32 0, i32 8
  call void @Curl_free_idnconverted_hostname(ptr noundef %147)
  %148 = load ptr, ptr %6, align 8, !tbaa !181
  %149 = getelementptr inbounds nuw %struct.connectdata, ptr %148, i32 0, i32 11
  call void @Curl_free_idnconverted_hostname(ptr noundef %149)
  br label %150

150:                                              ; preds = %145
  %151 = load ptr, ptr @Curl_cfree, align 8, !tbaa !11
  %152 = load ptr, ptr %6, align 8, !tbaa !181
  %153 = getelementptr inbounds nuw %struct.connectdata, ptr %152, i32 0, i32 8
  %154 = getelementptr inbounds nuw %struct.hostname, ptr %153, i32 0, i32 0
  %155 = load ptr, ptr %154, align 8, !tbaa !203
  call void %151(ptr noundef %155)
  %156 = load ptr, ptr %6, align 8, !tbaa !181
  %157 = getelementptr inbounds nuw %struct.connectdata, ptr %156, i32 0, i32 8
  %158 = getelementptr inbounds nuw %struct.hostname, ptr %157, i32 0, i32 0
  store ptr null, ptr %158, align 8, !tbaa !203
  br label %159

159:                                              ; preds = %150
  br label %160

160:                                              ; preds = %159
  %161 = load ptr, ptr @Curl_cfree, align 8, !tbaa !11
  %162 = load ptr, ptr %6, align 8, !tbaa !181
  %163 = getelementptr inbounds nuw %struct.connectdata, ptr %162, i32 0, i32 11
  %164 = getelementptr inbounds nuw %struct.hostname, ptr %163, i32 0, i32 0
  %165 = load ptr, ptr %164, align 8, !tbaa !204
  call void %161(ptr noundef %165)
  %166 = load ptr, ptr %6, align 8, !tbaa !181
  %167 = getelementptr inbounds nuw %struct.connectdata, ptr %166, i32 0, i32 11
  %168 = getelementptr inbounds nuw %struct.hostname, ptr %167, i32 0, i32 0
  store ptr null, ptr %168, align 8, !tbaa !204
  br label %169

169:                                              ; preds = %160
  %170 = load ptr, ptr %6, align 8, !tbaa !181
  %171 = getelementptr inbounds nuw %struct.connectdata, ptr %170, i32 0, i32 8
  %172 = load ptr, ptr %5, align 8, !tbaa !181
  %173 = getelementptr inbounds nuw %struct.connectdata, ptr %172, i32 0, i32 8
  call void @llvm.memcpy.p0.p0.i64(ptr align 8 %171, ptr align 8 %173, i64 32, i1 false), !tbaa.struct !322
  %174 = load ptr, ptr %5, align 8, !tbaa !181
  %175 = getelementptr inbounds nuw %struct.connectdata, ptr %174, i32 0, i32 8
  %176 = getelementptr inbounds nuw %struct.hostname, ptr %175, i32 0, i32 0
  store ptr null, ptr %176, align 8, !tbaa !203
  %177 = load ptr, ptr %5, align 8, !tbaa !181
  %178 = getelementptr inbounds nuw %struct.connectdata, ptr %177, i32 0, i32 8
  %179 = getelementptr inbounds nuw %struct.hostname, ptr %178, i32 0, i32 1
  store ptr null, ptr %179, align 8, !tbaa !323
  %180 = load ptr, ptr %6, align 8, !tbaa !181
  %181 = getelementptr inbounds nuw %struct.connectdata, ptr %180, i32 0, i32 11
  %182 = load ptr, ptr %5, align 8, !tbaa !181
  %183 = getelementptr inbounds nuw %struct.connectdata, ptr %182, i32 0, i32 11
  call void @llvm.memcpy.p0.p0.i64(ptr align 8 %181, ptr align 8 %183, i64 32, i1 false), !tbaa.struct !322
  %184 = load ptr, ptr %5, align 8, !tbaa !181
  %185 = getelementptr inbounds nuw %struct.connectdata, ptr %184, i32 0, i32 11
  %186 = getelementptr inbounds nuw %struct.hostname, ptr %185, i32 0, i32 0
  store ptr null, ptr %186, align 8, !tbaa !204
  %187 = load ptr, ptr %5, align 8, !tbaa !181
  %188 = getelementptr inbounds nuw %struct.connectdata, ptr %187, i32 0, i32 48
  %189 = load i32, ptr %188, align 4, !tbaa !252
  %190 = load ptr, ptr %6, align 8, !tbaa !181
  %191 = getelementptr inbounds nuw %struct.connectdata, ptr %190, i32 0, i32 48
  store i32 %189, ptr %191, align 4, !tbaa !252
  %192 = load ptr, ptr %5, align 8, !tbaa !181
  %193 = getelementptr inbounds nuw %struct.connectdata, ptr %192, i32 0, i32 47
  %194 = load i32, ptr %193, align 8, !tbaa !253
  %195 = load ptr, ptr %6, align 8, !tbaa !181
  %196 = getelementptr inbounds nuw %struct.connectdata, ptr %195, i32 0, i32 47
  store i32 %194, ptr %196, align 8, !tbaa !253
  br label %197

197:                                              ; preds = %169
  %198 = load ptr, ptr @Curl_cfree, align 8, !tbaa !11
  %199 = load ptr, ptr %6, align 8, !tbaa !181
  %200 = getelementptr inbounds nuw %struct.connectdata, ptr %199, i32 0, i32 9
  %201 = load ptr, ptr %200, align 8, !tbaa !205
  call void %198(ptr noundef %201)
  %202 = load ptr, ptr %6, align 8, !tbaa !181
  %203 = getelementptr inbounds nuw %struct.connectdata, ptr %202, i32 0, i32 9
  store ptr null, ptr %203, align 8, !tbaa !205
  br label %204

204:                                              ; preds = %197
  %205 = load ptr, ptr %5, align 8, !tbaa !181
  %206 = getelementptr inbounds nuw %struct.connectdata, ptr %205, i32 0, i32 9
  %207 = load ptr, ptr %206, align 8, !tbaa !205
  %208 = load ptr, ptr %6, align 8, !tbaa !181
  %209 = getelementptr inbounds nuw %struct.connectdata, ptr %208, i32 0, i32 9
  store ptr %207, ptr %209, align 8, !tbaa !205
  %210 = load ptr, ptr %5, align 8, !tbaa !181
  %211 = getelementptr inbounds nuw %struct.connectdata, ptr %210, i32 0, i32 9
  store ptr null, ptr %211, align 8, !tbaa !205
  %212 = load ptr, ptr %6, align 8, !tbaa !181
  %213 = getelementptr inbounds nuw %struct.connectdata, ptr %212, i32 0, i32 32
  %214 = load i64, ptr %213, align 8
  %215 = and i64 %214, -65
  %216 = or i64 %215, 64
  store i64 %216, ptr %213, align 8
  %217 = load ptr, ptr %4, align 8, !tbaa !4
  %218 = load ptr, ptr %5, align 8, !tbaa !181
  call void @Curl_conn_free(ptr noundef %217, ptr noundef %218)
  ret void
}